target datalayout = "e-m:e-p270:32:32-p271:32:32-p272:64:64-i64:64-i128:128-f80:128-n8:16:32:64-S128"
target triple = "x86_64-pc-linux-gnu"

%struct.NODE = type { ptr, ptr, ptr }
%union.QueryItem = type { %struct.QueryOperand }
%struct.QueryOperand = type { i8, i8, i8, i32, i32 }
%struct.QueryOperator = type { i8, i8, i16, i32 }
%struct.PLAINTREE = type { ptr, i32, i32 }

; Function Attrs: nounwind uwtable
define internal void @plainnode(ptr noundef %0, ptr noundef %1) #0 {
  %3 = alloca ptr, align 8
  %4 = alloca ptr, align 8
  %5 = alloca i32, align 4
  store ptr %0, ptr %3, align 8
  store ptr %1, ptr %4, align 8
  call void @check_stack_depth()
  %6 = load ptr, ptr %3, align 8
  %7 = getelementptr inbounds nuw %struct.PLAINTREE, ptr %6, i32 0, i32 2
  %8 = load i32, ptr %7, align 4
  %9 = load ptr, ptr %3, align 8
  %10 = getelementptr inbounds nuw %struct.PLAINTREE, ptr %9, i32 0, i32 1
  %11 = load i32, ptr %10, align 8
  %12 = icmp eq i32 %8, %11
  br i1 %12, label %13, label %29

13:                                               ; preds = %2
  %14 = load ptr, ptr %3, align 8
  %15 = getelementptr inbounds nuw %struct.PLAINTREE, ptr %14, i32 0, i32 1
  %16 = load i32, ptr %15, align 8
  %17 = mul i32 %16, 2
  store i32 %17, ptr %15, align 8
  %18 = load ptr, ptr %3, align 8
  %19 = getelementptr inbounds nuw %struct.PLAINTREE, ptr %18, i32 0, i32 0
  %20 = load ptr, ptr %19, align 8
  %21 = load ptr, ptr %3, align 8
  %22 = getelementptr inbounds nuw %struct.PLAINTREE, ptr %21, i32 0, i32 1
  %23 = load i32, ptr %22, align 8
  %24 = sext i32 %23 to i64
  %25 = mul i64 %24, 12
  %26 = call ptr @repalloc(ptr noundef %20, i64 noundef %25)
  %27 = load ptr, ptr %3, align 8
  %28 = getelementptr inbounds nuw %struct.PLAINTREE, ptr %27, i32 0, i32 0
  store ptr %26, ptr %28, align 8
  br label %29

29:                                               ; preds = %13, %2
  %30 = load ptr, ptr %3, align 8
  %31 = getelementptr inbounds nuw %struct.PLAINTREE, ptr %30, i32 0, i32 0
  %32 = load ptr, ptr %31, align 8
  %33 = load ptr, ptr %3, align 8
  %34 = getelementptr inbounds nuw %struct.PLAINTREE, ptr %33, i32 0, i32 2
  %35 = load i32, ptr %34, align 4
  %36 = sext i32 %35 to i64
  %37 = getelementptr inbounds %union.QueryItem, ptr %32, i64 %36
  %38 = load ptr, ptr %4, align 8
  %39 = getelementptr inbounds nuw %struct.NODE, ptr %38, i32 0, i32 2
  %40 = load ptr, ptr %39, align 8
  call void @llvm.memcpy.p0.p0.i64(ptr align 4 %37, ptr align 4 %40, i64 12, i1 false)
  %41 = load ptr, ptr %4, align 8
  %42 = getelementptr inbounds nuw %struct.NODE, ptr %41, i32 0, i32 2
  %43 = load ptr, ptr %42, align 8
  %44 = load i8, ptr %43, align 4
  %45 = sext i8 %44 to i32
  %46 = icmp eq i32 %45, 1
  br i1 %46, label %47, label %52

47:                                               ; preds = %29
  %48 = load ptr, ptr %3, align 8
  %49 = getelementptr inbounds nuw %struct.PLAINTREE, ptr %48, i32 0, i32 2
  %50 = load i32, ptr %49, align 4
  %51 = add i32 %50, 1
  store i32 %51, ptr %49, align 4
  br label %107

52:                                               ; preds = %29
  %53 = load ptr, ptr %4, align 8
  %54 = getelementptr inbounds nuw %struct.NODE, ptr %53, i32 0, i32 2
  %55 = load ptr, ptr %54, align 8
  %56 = getelementptr inbounds nuw %struct.QueryOperator, ptr %55, i32 0, i32 1
  %57 = load i8, ptr %56, align 1
  %58 = sext i8 %57 to i32
  %59 = icmp eq i32 %58, 1
  br i1 %59, label %60, label %78

60:                                               ; preds = %52
  %61 = load ptr, ptr %3, align 8
  %62 = getelementptr inbounds nuw %struct.PLAINTREE, ptr %61, i32 0, i32 0
  %63 = load ptr, ptr %62, align 8
  %64 = load ptr, ptr %3, align 8
  %65 = getelementptr inbounds nuw %struct.PLAINTREE, ptr %64, i32 0, i32 2
  %66 = load i32, ptr %65, align 4
  %67 = sext i32 %66 to i64
  %68 = getelementptr inbounds %union.QueryItem, ptr %63, i64 %67
  %69 = getelementptr inbounds nuw %struct.QueryOperator, ptr %68, i32 0, i32 3
  store i32 1, ptr %69, align 4
  %70 = load ptr, ptr %3, align 8
  %71 = getelementptr inbounds nuw %struct.PLAINTREE, ptr %70, i32 0, i32 2
  %72 = load i32, ptr %71, align 4
  %73 = add i32 %72, 1
  store i32 %73, ptr %71, align 4
  %74 = load ptr, ptr %3, align 8
  %75 = load ptr, ptr %4, align 8
  %76 = getelementptr inbounds nuw %struct.NODE, ptr %75, i32 0, i32 1
  %77 = load ptr, ptr %76, align 8
  call void @plainnode(ptr noundef %74, ptr noundef %77)
  br label %106

78:                                               ; preds = %52
  call void @llvm.lifetime.start.p0(i64 4, ptr %5) #5
  %79 = load ptr, ptr %3, align 8
  %80 = getelementptr inbounds nuw %struct.PLAINTREE, ptr %79, i32 0, i32 2
  %81 = load i32, ptr %80, align 4
  store i32 %81, ptr %5, align 4
  %82 = load ptr, ptr %3, align 8
  %83 = getelementptr inbounds nuw %struct.PLAINTREE, ptr %82, i32 0, i32 2
  %84 = load i32, ptr %83, align 4
  %85 = add i32 %84, 1
  store i32 %85, ptr %83, align 4
  %86 = load ptr, ptr %3, align 8
  %87 = load ptr, ptr %4, align 8
  %88 = getelementptr inbounds nuw %struct.NODE, ptr %87, i32 0, i32 1
  %89 = load ptr, ptr %88, align 8
  call void @plainnode(ptr noundef %86, ptr noundef %89)
  %90 = load ptr, ptr %3, align 8
  %91 = getelementptr inbounds nuw %struct.PLAINTREE, ptr %90, i32 0, i32 2
  %92 = load i32, ptr %91, align 4
  %93 = load i32, ptr %5, align 4
  %94 = sub i32 %92, %93
  %95 = load ptr, ptr %3, align 8
  %96 = getelementptr inbounds nuw %struct.PLAINTREE, ptr %95, i32 0, i32 0
  %97 = load ptr, ptr %96, align 8
  %98 = load i32, ptr %5, align 4
  %99 = sext i32 %98 to i64
  %100 = getelementptr inbounds %union.QueryItem, ptr %97, i64 %99
  %101 = getelementptr inbounds nuw %struct.QueryOperator, ptr %100, i32 0, i32 3
  store i32 %94, ptr %101, align 4
  %102 = load ptr, ptr %3, align 8
  %103 = load ptr, ptr %4, align 8
  %104 = getelementptr inbounds nuw %struct.NODE, ptr %103, i32 0, i32 0
  %105 = load ptr, ptr %104, align 8
  call void @plainnode(ptr noundef %102, ptr noundef %105)
  call void @llvm.lifetime.end.p0(i64 4, ptr %5) #5
  br label %106

106:                                              ; preds = %78, %60
  br label %107

107:                                              ; preds = %106, %47
  %108 = load ptr, ptr %4, align 8
  call void @pfree(ptr noundef %108)
  ret void
}