; Function Attrs: nounwind uwtable
define internal fastcc void @plainnode(ptr noundef nonnull %0, ptr noundef %1) unnamed_addr #0 {
  tail call void @check_stack_depth() #7
  %3 = getelementptr inbounds nuw i8, ptr %0, i64 12
  %4 = load i32, ptr %3, align 4
  %5 = getelementptr inbounds nuw i8, ptr %0, i64 8
  %6 = load i32, ptr %5, align 8
  %7 = icmp eq i32 %4, %6
  %.pre = load ptr, ptr %0, align 8
  br i1 %7, label %8, label %13

8:                                                ; preds = %2
  %9 = shl i32 %4, 1
  store i32 %9, ptr %5, align 8
  %10 = sext i32 %9 to i64
  %11 = mul nsw i64 %10, 12
  %12 = tail call ptr @repalloc(ptr noundef %.pre, i64 noundef %11) #7
  store ptr %12, ptr %0, align 8
  %.pre27 = load i32, ptr %3, align 4
  br label %13

13:                                               ; preds = %8, %2
  %14 = phi i32 [ %.pre27, %8 ], [ %4, %2 ]
  %15 = phi ptr [ %12, %8 ], [ %.pre, %2 ]
  %16 = sext i32 %14 to i64
  %17 = getelementptr inbounds %union.QueryItem, ptr %15, i64 %16
  %18 = getelementptr inbounds nuw i8, ptr %1, i64 16
  %19 = load ptr, ptr %18, align 8
  tail call void @llvm.memcpy.p0.p0.i64(ptr noundef nonnull align 4 dereferenceable(12) %17, ptr noundef nonnull align 4 dereferenceable(12) %19, i64 12, i1 false)
  %20 = load ptr, ptr %18, align 8
  %21 = load i8, ptr %20, align 4
  %22 = icmp eq i8 %21, 1
  br i1 %22, label %23, label %26

23:                                               ; preds = %13
  %24 = load i32, ptr %3, align 4
  %25 = add i32 %24, 1
  store i32 %25, ptr %3, align 4
  br label %50

26:                                               ; preds = %13
  %27 = getelementptr inbounds nuw i8, ptr %20, i64 1
  %28 = load i8, ptr %27, align 1
  %29 = icmp eq i8 %28, 1
  br i1 %29, label %30, label %39

30:                                               ; preds = %26
  %31 = load ptr, ptr %0, align 8
  %32 = load i32, ptr %3, align 4
  %33 = sext i32 %32 to i64
  %34 = getelementptr inbounds %union.QueryItem, ptr %31, i64 %33, i32 0, i32 3
  store i32 1, ptr %34, align 4
  %35 = load i32, ptr %3, align 4
  %36 = add i32 %35, 1
  store i32 %36, ptr %3, align 4
  %37 = getelementptr inbounds nuw i8, ptr %1, i64 8
  %38 = load ptr, ptr %37, align 8
  tail call fastcc void @plainnode(ptr noundef %0, ptr noundef %38)
  br label %50

39:                                               ; preds = %26
  %40 = load i32, ptr %3, align 4
  %41 = add i32 %40, 1
  store i32 %41, ptr %3, align 4
  %42 = getelementptr inbounds nuw i8, ptr %1, i64 8
  %43 = load ptr, ptr %42, align 8
  tail call fastcc void @plainnode(ptr noundef %0, ptr noundef %43)
  %44 = load i32, ptr %3, align 4
  %45 = sub i32 %44, %40
  %46 = load ptr, ptr %0, align 8
  %47 = sext i32 %40 to i64
  %48 = getelementptr inbounds %union.QueryItem, ptr %46, i64 %47, i32 0, i32 3
  store i32 %45, ptr %48, align 4
  %49 = load ptr, ptr %1, align 8
  tail call fastcc void @plainnode(ptr noundef %0, ptr noundef %49)
  br label %50

50:                                               ; preds = %30, %39, %23
  tail call void @pfree(ptr noundef nonnull %1) #7
  ret void
}